; Function Attrs: mustprogress uwtable
define noundef zeroext i1 @_ZN4YAML12EmitterState20SetPostCommentIndentEmNS_8FmtScope5valueE(ptr noundef nonnull align 8 dereferenceable(224) %0, i64 noundef %1, i32 noundef %2) local_unnamed_addr #4 align 2 {
  %4 = icmp ne i64 %1, 0
  br i1 %4, label %5, label %7

5:                                                ; preds = %3
  %6 = getelementptr inbounds nuw i8, ptr %0, i64 88
  tail call void @_ZN4YAML12EmitterState4_SetImEEvRNS_7SettingIT_EES3_NS_8FmtScope5valueE(ptr noundef nonnull align 8 dereferenceable(224) %0, ptr noundef nonnull align 8 dereferenceable(8) %6, i64 noundef %1, i32 noundef %2)
  br label %7

7:                                                ; preds = %3, %5
  ret i1 %4
}